target datalayout = "e-m:e-p270:32:32-p271:32:32-p272:64:64-i64:64-i128:128-f80:128-n8:16:32:64-S128"
target triple = "x86_64-unknown-linux-gnu"

%"class.Imf_3_2::TypedAttribute" = type <{ %"class.Imf_3_2::Attribute", i32, [4 x i8] }>
%"class.Imf_3_2::Attribute" = type { ptr }

; Function Attrs: mustprogress uwtable
define linkonce_odr hidden noundef zeroext i1 @_ZN7Imf_3_28StreamIO9readCharsERNS_7IStreamEPci(ptr noundef nonnull align 8 dereferenceable(40) %is, ptr noundef %c, i32 noundef %n) #4 comdat align 2 {
entry:
  %is.addr = alloca ptr, align 8
  %c.addr = alloca ptr, align 8
  %n.addr = alloca i32, align 4
  store ptr %is, ptr %is.addr, align 8
  store ptr %c, ptr %c.addr, align 8
  store i32 %n, ptr %n.addr, align 4
  %0 = load ptr, ptr %is.addr, align 8
  %1 = load ptr, ptr %c.addr, align 8
  %2 = load i32, ptr %n.addr, align 4
  %vtable = load ptr, ptr %0, align 8
  %vfn = getelementptr inbounds ptr, ptr %vtable, i64 3
  %3 = load ptr, ptr %vfn, align 8
  %call = call noundef zeroext i1 %3(ptr noundef nonnull align 8 dereferenceable(40) %0, ptr noundef %1, i32 noundef %2)
  ret i1 %call
}

; Function Attrs: mustprogress uwtable
define linkonce_odr hidden void @_ZN7Imf_3_23Xdr17readUnsignedCharsINS_8StreamIOENS_7IStreamEEEvRT0_Phi(ptr noundef nonnull align 8 dereferenceable(40) %in, ptr noundef %c, i32 noundef %n) #4 comdat {
entry:
  %in.addr = alloca ptr, align 8
  %c.addr = alloca ptr, align 8
  %n.addr = alloca i32, align 4
  store ptr %in, ptr %in.addr, align 8
  store ptr %c, ptr %c.addr, align 8
  store i32 %n, ptr %n.addr, align 4
  %0 = load ptr, ptr %in.addr, align 8
  %1 = load ptr, ptr %c.addr, align 8
  %2 = load i32, ptr %n.addr, align 4
  %call = call noundef zeroext i1 @_ZN7Imf_3_28StreamIO9readCharsERNS_7IStreamEPci(ptr noundef nonnull align 8 dereferenceable(40) %0, ptr noundef %1, i32 noundef %2)
  ret void
}

; Function Attrs: mustprogress uwtable
define linkonce_odr hidden void @_ZN7Imf_3_23Xdr4readINS_8StreamIOENS_7IStreamEEEvRT0_Rh(ptr noundef nonnull align 8 dereferenceable(40) %in, ptr noundef nonnull align 1 dereferenceable(1) %v) #4 comdat {
entry:
  %in.addr = alloca ptr, align 8
  %v.addr = alloca ptr, align 8
  store ptr %in, ptr %in.addr, align 8
  store ptr %v, ptr %v.addr, align 8
  %0 = load ptr, ptr %in.addr, align 8
  %1 = load ptr, ptr %v.addr, align 8
  call void @_ZN7Imf_3_23Xdr17readUnsignedCharsINS_8StreamIOENS_7IStreamEEEvRT0_Phi(ptr noundef nonnull align 8 dereferenceable(40) %0, ptr noundef %1, i32 noundef 1)
  ret void
}

; Function Attrs: mustprogress uwtable
define void @_ZN7Imf_3_214TypedAttributeINS_11CompressionEE13readValueFromERNS_7IStreamEii(ptr noundef nonnull align 8 dereferenceable(12) %this, ptr noundef nonnull align 8 dereferenceable(40) %is, i32 noundef %size, i32 noundef %version) unnamed_addr #4 align 2 {
entry:
  %this.addr = alloca ptr, align 8
  %is.addr = alloca ptr, align 8
  %size.addr = alloca i32, align 4
  %version.addr = alloca i32, align 4
  %tmp = alloca i8, align 1
  store ptr %this, ptr %this.addr, align 8
  store ptr %is, ptr %is.addr, align 8
  store i32 %size, ptr %size.addr, align 4
  store i32 %version, ptr %version.addr, align 4
  %this1 = load ptr, ptr %this.addr, align 8
  %0 = load ptr, ptr %is.addr, align 8
  call void @_ZN7Imf_3_23Xdr4readINS_8StreamIOENS_7IStreamEEEvRT0_Rh(ptr noundef nonnull align 8 dereferenceable(40) %0, ptr noundef nonnull align 1 dereferenceable(1) %tmp)
  %1 = load i8, ptr %tmp, align 1
  %conv = zext i8 %1 to i32
  %cmp = icmp ne i32 %conv, 0
  br i1 %cmp, label %land.lhs.true, label %if.end

land.lhs.true:                                    ; preds = %entry
  %2 = load i8, ptr %tmp, align 1
  %conv2 = zext i8 %2 to i32
  %cmp3 = icmp ne i32 %conv2, 1
  br i1 %cmp3, label %land.lhs.true4, label %if.end

land.lhs.true4:                                   ; preds = %land.lhs.true
  %3 = load i8, ptr %tmp, align 1
  %conv5 = zext i8 %3 to i32
  %cmp6 = icmp ne i32 %conv5, 2
  br i1 %cmp6, label %land.lhs.true7, label %if.end

land.lhs.true7:                                   ; preds = %land.lhs.true4
  %4 = load i8, ptr %tmp, align 1
  %conv8 = zext i8 %4 to i32
  %cmp9 = icmp ne i32 %conv8, 3
  br i1 %cmp9, label %land.lhs.true10, label %if.end

land.lhs.true10:                                  ; preds = %land.lhs.true7
  %5 = load i8, ptr %tmp, align 1
  %conv11 = zext i8 %5 to i32
  %cmp12 = icmp ne i32 %conv11, 4
  br i1 %cmp12, label %land.lhs.true13, label %if.end

land.lhs.true13:                                  ; preds = %land.lhs.true10
  %6 = load i8, ptr %tmp, align 1
  %conv14 = zext i8 %6 to i32
  %cmp15 = icmp ne i32 %conv14, 5
  br i1 %cmp15, label %land.lhs.true16, label %if.end

land.lhs.true16:                                  ; preds = %land.lhs.true13
  %7 = load i8, ptr %tmp, align 1
  %conv17 = zext i8 %7 to i32
  %cmp18 = icmp ne i32 %conv17, 6
  br i1 %cmp18, label %land.lhs.true19, label %if.end

land.lhs.true19:                                  ; preds = %land.lhs.true16
  %8 = load i8, ptr %tmp, align 1
  %conv20 = zext i8 %8 to i32
  %cmp21 = icmp ne i32 %conv20, 7
  br i1 %cmp21, label %land.lhs.true22, label %if.end

land.lhs.true22:                                  ; preds = %land.lhs.true19
  %9 = load i8, ptr %tmp, align 1
  %conv23 = zext i8 %9 to i32
  %cmp24 = icmp ne i32 %conv23, 8
  br i1 %cmp24, label %land.lhs.true25, label %if.end

land.lhs.true25:                                  ; preds = %land.lhs.true22
  %10 = load i8, ptr %tmp, align 1
  %conv26 = zext i8 %10 to i32
  %cmp27 = icmp ne i32 %conv26, 9
  br i1 %cmp27, label %if.then, label %if.end

if.then:                                          ; preds = %land.lhs.true25
  store i8 10, ptr %tmp, align 1
  br label %if.end

if.end:                                           ; preds = %if.then, %land.lhs.true25, %land.lhs.true22, %land.lhs.true19, %land.lhs.true16, %land.lhs.true13, %land.lhs.true10, %land.lhs.true7, %land.lhs.true4, %land.lhs.true, %entry
  %11 = load i8, ptr %tmp, align 1
  %conv28 = zext i8 %11 to i32
  %_value = getelementptr inbounds %"class.Imf_3_2::TypedAttribute", ptr %this1, i32 0, i32 1
  store i32 %conv28, ptr %_value, align 8
  ret void
}