; Function Attrs: mustprogress uwtable
define void @_ZN7Imf_3_214TypedAttributeINS_11CompressionEE13readValueFromERNS_7IStreamEii(ptr nocapture noundef nonnull writeonly align 8 dereferenceable(12) %this, ptr noundef nonnull align 8 dereferenceable(40) %is, i32 %size, i32 %version) unnamed_addr #3 align 2 {
entry:
  %tmp = alloca i8, align 1
  %vtable.i.i.i = load ptr, ptr %is, align 8
  %vfn.i.i.i = getelementptr inbounds i8, ptr %vtable.i.i.i, i64 24
  %0 = load ptr, ptr %vfn.i.i.i, align 8
  %call.i.i.i = call noundef zeroext i1 %0(ptr noundef nonnull align 8 dereferenceable(40) %is, ptr noundef nonnull %tmp, i32 noundef 1)
  %1 = load i8, ptr %tmp, align 1
  %spec.select = call i8 @llvm.umin.i8(i8 %1, i8 10)
  %conv28 = zext nneg i8 %spec.select to i32
  %_value = getelementptr inbounds i8, ptr %this, i64 8
  store i32 %conv28, ptr %_value, align 8
  ret void
}